; ModuleID = '24/799.c'
source_filename = "24/799.c"
target datalayout = "e-m:e-p270:32:32-p271:32:32-p272:64:64-i64:64-f80:128-n8:16:32:64-S128"
target triple = "x86_64-pc-linux-gnu"

@.str = private unnamed_addr constant [3 x i8] c"%c\00", align 1
@.str.1 = private unnamed_addr constant [2 x i8] c"\0A\00", align 1

; Function Attrs: noinline nounwind uwtable
define dso_local i32 @main() #0 {
  %1 = alloca i32, align 4
  %2 = alloca [1000 x i8], align 16
  %3 = alloca i32, align 4
  %4 = alloca i32, align 4
  %5 = alloca i32, align 4
  %6 = alloca i32, align 4
  %7 = alloca i32, align 4
  %8 = alloca i32, align 4
  %9 = alloca i32, align 4
  %10 = alloca i32, align 4
  store i32 0, i32* %1, align 4
  %11 = getelementptr inbounds [1000 x i8], [1000 x i8]* %2, i64 0, i64 0
  %12 = call i32 (i8*, ...) bitcast (i32 (...)* @gets to i32 (i8*, ...)*)(i8* %11)
  %13 = getelementptr inbounds [1000 x i8], [1000 x i8]* %2, i64 0, i64 0
  %14 = call i64 @strlen(i8* %13) #3
  %15 = trunc i64 %14 to i32
  store i32 %15, i32* %3, align 4
  store i32 0, i32* %5, align 4
  store i32 0, i32* %7, align 4
  store i32 1000, i32* %8, align 4
  store i32 0, i32* %9, align 4
  store i32 0, i32* %10, align 4
  store i32 0, i32* %4, align 4
  br label %16

16:                                               ; preds = %49, %0
  %17 = load i32, i32* %4, align 4
  %18 = load i32, i32* %3, align 4
  %19 = icmp slt i32 %17, %18
  br i1 %19, label %20, label %52

20:                                               ; preds = %16
  %21 = load i32, i32* %4, align 4
  %22 = sext i32 %21 to i64
  %23 = getelementptr inbounds [1000 x i8], [1000 x i8]* %2, i64 0, i64 %22
  %24 = load i8, i8* %23, align 1
  %25 = sext i8 %24 to i32
  %26 = icmp ne i32 %25, 32
  br i1 %26, label %27, label %30

27:                                               ; preds = %20
  %28 = load i32, i32* %5, align 4
  %29 = add nsw i32 %28, 1
  store i32 %29, i32* %5, align 4
  br label %48

30:                                               ; preds = %20
  %31 = load i32, i32* %9, align 4
  %32 = load i32, i32* %5, align 4
  %33 = icmp slt i32 %31, %32
  br i1 %33, label %34, label %38

34:                                               ; preds = %30
  %35 = load i32, i32* %5, align 4
  store i32 %35, i32* %9, align 4
  %36 = load i32, i32* %4, align 4
  %37 = sub nsw i32 %36, 1
  store i32 %37, i32* %10, align 4
  br label %38

38:                                               ; preds = %34, %30
  %39 = load i32, i32* %8, align 4
  %40 = load i32, i32* %5, align 4
  %41 = icmp sgt i32 %39, %40
  br i1 %41, label %42, label %46

42:                                               ; preds = %38
  %43 = load i32, i32* %5, align 4
  store i32 %43, i32* %8, align 4
  %44 = load i32, i32* %4, align 4
  %45 = sub nsw i32 %44, 1
  store i32 %45, i32* %7, align 4
  br label %46

46:                                               ; preds = %42, %38
  store i32 0, i32* %5, align 4
  %47 = load i32, i32* %4, align 4
  store i32 %47, i32* %6, align 4
  br label %48

48:                                               ; preds = %46, %27
  br label %49

49:                                               ; preds = %48
  %50 = load i32, i32* %4, align 4
  %51 = add nsw i32 %50, 1
  store i32 %51, i32* %4, align 4
  br label %16

52:                                               ; preds = %16
  %53 = load i32, i32* %3, align 4
  %54 = sub nsw i32 %53, 1
  %55 = load i32, i32* %6, align 4
  %56 = sub nsw i32 %54, %55
  store i32 %56, i32* %5, align 4
  %57 = load i32, i32* %9, align 4
  %58 = load i32, i32* %5, align 4
  %59 = icmp slt i32 %57, %58
  br i1 %59, label %60, label %64

60:                                               ; preds = %52
  %61 = load i32, i32* %5, align 4
  store i32 %61, i32* %9, align 4
  %62 = load i32, i32* %4, align 4
  %63 = sub nsw i32 %62, 1
  store i32 %63, i32* %10, align 4
  br label %64

64:                                               ; preds = %60, %52
  %65 = load i32, i32* %8, align 4
  %66 = load i32, i32* %5, align 4
  %67 = icmp sgt i32 %65, %66
  br i1 %67, label %68, label %72

68:                                               ; preds = %64
  %69 = load i32, i32* %5, align 4
  store i32 %69, i32* %8, align 4
  %70 = load i32, i32* %4, align 4
  %71 = sub nsw i32 %70, 1
  store i32 %71, i32* %7, align 4
  br label %72

72:                                               ; preds = %68, %64
  %73 = load i32, i32* %10, align 4
  %74 = load i32, i32* %9, align 4
  %75 = sub nsw i32 %73, %74
  %76 = add nsw i32 %75, 1
  store i32 %76, i32* %4, align 4
  br label %77

77:                                               ; preds = %88, %72
  %78 = load i32, i32* %4, align 4
  %79 = load i32, i32* %10, align 4
  %80 = icmp sle i32 %78, %79
  br i1 %80, label %81, label %91

81:                                               ; preds = %77
  %82 = load i32, i32* %4, align 4
  %83 = sext i32 %82 to i64
  %84 = getelementptr inbounds [1000 x i8], [1000 x i8]* %2, i64 0, i64 %83
  %85 = load i8, i8* %84, align 1
  %86 = sext i8 %85 to i32
  %87 = call i32 (i8*, ...) @printf(i8* getelementptr inbounds ([3 x i8], [3 x i8]* @.str, i64 0, i64 0), i32 %86)
  br label %88

88:                                               ; preds = %81
  %89 = load i32, i32* %4, align 4
  %90 = add nsw i32 %89, 1
  store i32 %90, i32* %4, align 4
  br label %77

91:                                               ; preds = %77
  %92 = call i32 (i8*, ...) @printf(i8* getelementptr inbounds ([2 x i8], [2 x i8]* @.str.1, i64 0, i64 0))
  %93 = load i32, i32* %7, align 4
  %94 = load i32, i32* %8, align 4
  %95 = sub nsw i32 %93, %94
  %96 = add nsw i32 %95, 1
  store i32 %96, i32* %4, align 4
  br label %97

97:                                               ; preds = %108, %91
  %98 = load i32, i32* %4, align 4
  %99 = load i32, i32* %7, align 4
  %100 = icmp sle i32 %98, %99
  br i1 %100, label %101, label %111

101:                                              ; preds = %97
  %102 = load i32, i32* %4, align 4
  %103 = sext i32 %102 to i64
  %104 = getelementptr inbounds [1000 x i8], [1000 x i8]* %2, i64 0, i64 %103
  %105 = load i8, i8* %104, align 1
  %106 = sext i8 %105 to i32
  %107 = call i32 (i8*, ...) @printf(i8* getelementptr inbounds ([3 x i8], [3 x i8]* @.str, i64 0, i64 0), i32 %106)
  br label %108

108:                                              ; preds = %101
  %109 = load i32, i32* %4, align 4
  %110 = add nsw i32 %109, 1
  store i32 %110, i32* %4, align 4
  br label %97

111:                                              ; preds = %97
  ret i32 0
}

declare dso_local i32 @gets(...) #1

; Function Attrs: nounwind readonly
declare dso_local i64 @strlen(i8*) #2

declare dso_local i32 @printf(i8*, ...) #1


!llvm.module.flags = !{!0}
!llvm.ident = !{!1}

!0 = !{i32 1, !"wchar_size", i32 4}
!1 = !{!"clang version 10.0.0-4ubuntu1 "}
